target datalayout = "e-m:e-p270:32:32-p271:32:32-p272:64:64-i64:64-i128:128-f80:128-n8:16:32:64-S128"
target triple = "x86_64-pc-linux-gnu"

%class.symbol = type { ptr }
%class.quantifier = type { %class.expr, i32, i32, ptr, ptr, i32, i32, i8, i8, %class.symbol, %class.symbol, i32, i32, [0 x i8] }
%class.expr = type { %class.ast }
%class.ast = type { i32, i32, i32, i32 }
%class.app = type { %class.expr, ptr, i32, %struct.app_flags, [0 x ptr] }
%struct.app_flags = type <{ i16, i8, i8 }>

; Function Attrs: mustprogress nounwind uwtable
define linkonce_odr hidden noundef ptr @_ZNK3app8get_declEv(ptr noundef nonnull align 8 dereferenceable(32) %0) #5 comdat align 2 {
  %2 = alloca ptr, align 8
  store ptr %0, ptr %2, align 8, !tbaa !109
  %3 = load ptr, ptr %2, align 8
  %4 = getelementptr inbounds nuw %class.app, ptr %3, i32 0, i32 1
  %5 = load ptr, ptr %4, align 8, !tbaa !184
  ret ptr %5
}

; Function Attrs: inlinehint mustprogress nounwind uwtable
define linkonce_odr hidden noundef ptr @_Z6to_appPK3ast(ptr noundef %0) #6 comdat {
  %2 = alloca ptr, align 8
  store ptr %0, ptr %2, align 8, !tbaa !117
  %3 = load ptr, ptr %2, align 8, !tbaa !117
  ret ptr %3
}

; Function Attrs: mustprogress nounwind uwtable
define linkonce_odr hidden noundef i32 @_ZNK3ast8get_kindEv(ptr noundef nonnull align 4 dereferenceable(16) %0) #5 comdat align 2 {
  %2 = alloca ptr, align 8
  store ptr %0, ptr %2, align 8, !tbaa !117
  %3 = load ptr, ptr %2, align 8
  %4 = getelementptr inbounds nuw %class.ast, ptr %3, i32 0, i32 1
  %5 = load i32, ptr %4, align 4
  %6 = and i32 %5, 65535
  ret i32 %6
}

; Function Attrs: inlinehint mustprogress uwtable
define linkonce_odr hidden noundef zeroext i1 @_Z9is_app_ofPK4exprPK9func_decl(ptr noundef %0, ptr noundef %1) #9 comdat {
  %3 = alloca ptr, align 8
  %4 = alloca ptr, align 8
  store ptr %0, ptr %3, align 8, !tbaa !127
  store ptr %1, ptr %4, align 8, !tbaa !106
  %5 = load ptr, ptr %3, align 8, !tbaa !127
  %6 = call noundef i32 @_ZNK3ast8get_kindEv(ptr noundef nonnull align 4 dereferenceable(16) %5)
  %7 = icmp eq i32 %6, 0
  br i1 %7, label %8, label %14

8:                                                ; preds = %2
  %9 = load ptr, ptr %3, align 8, !tbaa !127
  %10 = call noundef ptr @_Z6to_appPK3ast(ptr noundef %9)
  %11 = call noundef ptr @_ZNK3app8get_declEv(ptr noundef nonnull align 8 dereferenceable(32) %10)
  %12 = load ptr, ptr %4, align 8, !tbaa !106
  %13 = icmp eq ptr %11, %12
  br label %14

14:                                               ; preds = %8, %2
  %15 = phi i1 [ false, %2 ], [ %13, %8 ]
  ret i1 %15
}

; Function Attrs: mustprogress nounwind uwtable
define linkonce_odr hidden noundef ptr @_ZNK3app7get_argEj(ptr noundef nonnull align 8 dereferenceable(32) %0, i32 noundef %1) #5 comdat align 2 {
  %3 = alloca ptr, align 8
  %4 = alloca i32, align 4
  store ptr %0, ptr %3, align 8, !tbaa !109
  store i32 %1, ptr %4, align 4, !tbaa !134
  %5 = load ptr, ptr %3, align 8
  %6 = getelementptr inbounds nuw %class.app, ptr %5, i32 0, i32 4
  %7 = load i32, ptr %4, align 4, !tbaa !134
  %8 = zext i32 %7 to i64
  %9 = getelementptr inbounds nuw [0 x ptr], ptr %6, i64 0, i64 %8
  %10 = load ptr, ptr %9, align 8, !tbaa !127
  ret ptr %10
}

; Function Attrs: inlinehint mustprogress nounwind uwtable
define linkonce_odr hidden noundef ptr @_Z6to_appP3ast(ptr noundef %0) #6 comdat {
  %2 = alloca ptr, align 8
  store ptr %0, ptr %2, align 8, !tbaa !117
  %3 = load ptr, ptr %2, align 8, !tbaa !117
  ret ptr %3
}

; Function Attrs: mustprogress nounwind uwtable
define linkonce_odr hidden noundef ptr @_ZNK10quantifier8get_exprEv(ptr noundef nonnull align 8 dereferenceable(80) %0) #5 comdat align 2 {
  %2 = alloca ptr, align 8
  store ptr %0, ptr %2, align 8, !tbaa !107
  %3 = load ptr, ptr %2, align 8
  %4 = getelementptr inbounds nuw %class.quantifier, ptr %3, i32 0, i32 3
  %5 = load ptr, ptr %4, align 8, !tbaa !129
  ret ptr %5
}

; Function Attrs: mustprogress uwtable
define hidden void @_ZN18macro_substitution12get_head_defEP10quantifierP9func_declRP3appRP4expr(ptr noundef nonnull align 8 dereferenceable(49) %0, ptr noundef %1, ptr noundef %2, ptr noundef nonnull align 8 dereferenceable(8) %3, ptr noundef nonnull align 8 dereferenceable(8) %4) #4 align 2 {
  %6 = alloca ptr, align 8
  %7 = alloca ptr, align 8
  %8 = alloca ptr, align 8
  %9 = alloca ptr, align 8
  %10 = alloca ptr, align 8
  %11 = alloca ptr, align 8
  %12 = alloca ptr, align 8
  %13 = alloca ptr, align 8
  store ptr %0, ptr %6, align 8, !tbaa !3
  store ptr %1, ptr %7, align 8, !tbaa !107
  store ptr %2, ptr %8, align 8, !tbaa !106
  store ptr %3, ptr %9, align 8, !tbaa !119
  store ptr %4, ptr %10, align 8, !tbaa !125
  call void @llvm.lifetime.start.p0(i64 8, ptr %11) #3
  %14 = load ptr, ptr %7, align 8, !tbaa !107
  %15 = call noundef ptr @_ZNK10quantifier8get_exprEv(ptr noundef nonnull align 8 dereferenceable(80) %14)
  %16 = call noundef ptr @_Z6to_appP3ast(ptr noundef %15)
  store ptr %16, ptr %11, align 8, !tbaa !109
  call void @llvm.lifetime.start.p0(i64 8, ptr %12) #3
  %17 = load ptr, ptr %11, align 8, !tbaa !109
  %18 = call noundef ptr @_Z6to_appP3ast(ptr noundef %17)
  %19 = call noundef ptr @_ZNK3app7get_argEj(ptr noundef nonnull align 8 dereferenceable(32) %18, i32 noundef 0)
  store ptr %19, ptr %12, align 8, !tbaa !127
  call void @llvm.lifetime.start.p0(i64 8, ptr %13) #3
  %20 = load ptr, ptr %11, align 8, !tbaa !109
  %21 = call noundef ptr @_Z6to_appP3ast(ptr noundef %20)
  %22 = call noundef ptr @_ZNK3app7get_argEj(ptr noundef nonnull align 8 dereferenceable(32) %21, i32 noundef 1)
  store ptr %22, ptr %13, align 8, !tbaa !127
  %23 = load ptr, ptr %12, align 8, !tbaa !127
  %24 = load ptr, ptr %8, align 8, !tbaa !106
  %25 = call noundef zeroext i1 @_Z9is_app_ofPK4exprPK9func_decl(ptr noundef %23, ptr noundef %24)
  br i1 %25, label %26, label %32

26:                                               ; preds = %5
  %27 = load ptr, ptr %12, align 8, !tbaa !127
  %28 = call noundef ptr @_Z6to_appP3ast(ptr noundef %27)
  %29 = load ptr, ptr %9, align 8, !tbaa !119
  store ptr %28, ptr %29, align 8, !tbaa !109
  %30 = load ptr, ptr %13, align 8, !tbaa !127
  %31 = load ptr, ptr %10, align 8, !tbaa !125
  store ptr %30, ptr %31, align 8, !tbaa !127
  br label %38

32:                                               ; preds = %5
  %33 = load ptr, ptr %13, align 8, !tbaa !127
  %34 = call noundef ptr @_Z6to_appP3ast(ptr noundef %33)
  %35 = load ptr, ptr %9, align 8, !tbaa !119
  store ptr %34, ptr %35, align 8, !tbaa !109
  %36 = load ptr, ptr %12, align 8, !tbaa !127
  %37 = load ptr, ptr %10, align 8, !tbaa !125
  store ptr %36, ptr %37, align 8, !tbaa !127
  br label %38

38:                                               ; preds = %32, %26
  call void @llvm.lifetime.end.p0(i64 8, ptr %13) #3
  call void @llvm.lifetime.end.p0(i64 8, ptr %12) #3
  call void @llvm.lifetime.end.p0(i64 8, ptr %11) #3
  ret void
}