; Function Attrs: mustprogress nofree norecurse nosync nounwind willreturn memory(read, argmem: readwrite, inaccessiblemem: none) uwtable
define hidden void @_ZN18macro_substitution12get_head_defEP10quantifierP9func_declRP3appRP4expr(ptr noundef nonnull readnone align 8 captures(none) dereferenceable(49) %0, ptr noundef readonly captures(none) %1, ptr noundef readnone captures(address) %2, ptr noundef nonnull writeonly align 8 captures(none) dereferenceable(8) initializes((0, 8)) %3, ptr noundef nonnull writeonly align 8 captures(none) dereferenceable(8) initializes((0, 8)) %4) local_unnamed_addr #9 align 2 {
  %6 = getelementptr inbounds nuw i8, ptr %1, i64 24
  %7 = load ptr, ptr %6, align 8, !tbaa !137
  %8 = getelementptr inbounds nuw i8, ptr %7, i64 32
  %9 = load ptr, ptr %8, align 8, !tbaa !142
  %10 = getelementptr inbounds nuw i8, ptr %7, i64 40
  %11 = load ptr, ptr %10, align 8, !tbaa !142
  %12 = getelementptr inbounds nuw i8, ptr %9, i64 4
  %13 = load i32, ptr %12, align 4
  %14 = and i32 %13, 65535
  %15 = icmp eq i32 %14, 0
  br i1 %15, label %_Z9is_app_ofPK4exprPK9func_decl.exit, label %_Z9is_app_ofPK4exprPK9func_decl.exit.thread

_Z9is_app_ofPK4exprPK9func_decl.exit:             ; preds = %5
  %16 = getelementptr inbounds nuw i8, ptr %9, i64 16
  %17 = load ptr, ptr %16, align 8, !tbaa !143
  %18 = icmp eq ptr %17, %2
  br i1 %18, label %19, label %_Z9is_app_ofPK4exprPK9func_decl.exit.thread

_Z9is_app_ofPK4exprPK9func_decl.exit.thread:      ; preds = %5, %_Z9is_app_ofPK4exprPK9func_decl.exit
  br label %19

19:                                               ; preds = %_Z9is_app_ofPK4exprPK9func_decl.exit, %_Z9is_app_ofPK4exprPK9func_decl.exit.thread
  %storemerge13 = phi ptr [ %11, %_Z9is_app_ofPK4exprPK9func_decl.exit.thread ], [ %9, %_Z9is_app_ofPK4exprPK9func_decl.exit ]
  %storemerge = phi ptr [ %9, %_Z9is_app_ofPK4exprPK9func_decl.exit.thread ], [ %11, %_Z9is_app_ofPK4exprPK9func_decl.exit ]
  store ptr %storemerge13, ptr %3, align 8, !tbaa !146
  store ptr %storemerge, ptr %4, align 8, !tbaa !142
  ret void
}